target datalayout = "e-m:e-p270:32:32-p271:32:32-p272:64:64-i64:64-i128:128-f80:128-n8:16:32:64-S128"
target triple = "x86_64-pc-linux-gnu"

%struct.token = type { %union.anon, i32, i32 }
%union.anon = type { ptr }
%struct.parser_state = type { i64, i64, ptr, ptr, ptr, ptr, %struct.tokens, i32 }
%struct.tokens = type { ptr, i64, i64 }
%struct.scanner = type { %struct.text_buffer, ptr, i64, ptr, i64, i64, i64, i32, i32 }
%struct.text_buffer = type { ptr, i64, i64 }
%struct.scope = type { %struct.cli_hashtable, ptr, ptr, i32, i32, i32, i32 }
%struct.cli_hashtable = type { ptr, i64, i64, i64 }

@.str.8 = private unnamed_addr constant [32 x i8] c"JS-Norm: cli_js_destroy() done\0A\00", align 1

; Function Attrs: nounwind uwtable
define internal ptr @scope_done(ptr noundef %0) #0 {
  %2 = alloca ptr, align 8
  %3 = alloca ptr, align 8
  store ptr %0, ptr %2, align 8, !tbaa !31
  call void @llvm.lifetime.start.p0(i64 8, ptr %3) #13
  %4 = load ptr, ptr %2, align 8, !tbaa !31
  %5 = getelementptr inbounds nuw %struct.scope, ptr %4, i32 0, i32 1
  %6 = load ptr, ptr %5, align 8, !tbaa !42
  store ptr %6, ptr %3, align 8, !tbaa !31
  %7 = load ptr, ptr %2, align 8, !tbaa !31
  %8 = getelementptr inbounds nuw %struct.scope, ptr %7, i32 0, i32 0
  call void @cli_hashtab_clear(ptr noundef %8)
  %9 = load ptr, ptr %2, align 8, !tbaa !31
  %10 = getelementptr inbounds nuw %struct.scope, ptr %9, i32 0, i32 0
  %11 = getelementptr inbounds nuw %struct.cli_hashtable, ptr %10, i32 0, i32 0
  %12 = load ptr, ptr %11, align 8, !tbaa !83
  call void @free(ptr noundef %12) #13
  %13 = load ptr, ptr %2, align 8, !tbaa !31
  call void @free(ptr noundef %13) #13
  %14 = load ptr, ptr %3, align 8, !tbaa !31
  call void @llvm.lifetime.end.p0(i64 8, ptr %3) #13
  ret ptr %14
}

; Function Attrs: nounwind uwtable
define internal i32 @yylex_destroy(ptr noundef %0) #0 {
  %2 = alloca ptr, align 8
  store ptr %0, ptr %2, align 8, !tbaa !54
  %3 = load ptr, ptr %2, align 8, !tbaa !54
  %4 = getelementptr inbounds nuw %struct.scanner, ptr %3, i32 0, i32 0
  %5 = getelementptr inbounds nuw %struct.text_buffer, ptr %4, i32 0, i32 0
  %6 = load ptr, ptr %5, align 8, !tbaa !55
  call void @free(ptr noundef %6) #13
  %7 = load ptr, ptr %2, align 8, !tbaa !54
  call void @free(ptr noundef %7) #13
  ret i32 0
}

; Function Attrs: nounwind uwtable
define internal void @free_token(ptr noundef %0) #0 {
  %2 = alloca ptr, align 8
  store ptr %0, ptr %2, align 8, !tbaa !45
  %3 = load ptr, ptr %2, align 8, !tbaa !45
  %4 = getelementptr inbounds nuw %struct.token, ptr %3, i32 0, i32 2
  %5 = load i32, ptr %4, align 4, !tbaa !28
  %6 = icmp eq i32 %5, 2
  br i1 %6, label %7, label %19

7:                                                ; preds = %1
  %8 = load ptr, ptr %2, align 8, !tbaa !45
  %9 = getelementptr inbounds nuw %struct.token, ptr %8, i32 0, i32 0
  %10 = load ptr, ptr %9, align 8, !tbaa !12
  %11 = icmp ne ptr null, %10
  br i1 %11, label %12, label %18

12:                                               ; preds = %7
  %13 = load ptr, ptr %2, align 8, !tbaa !45
  %14 = getelementptr inbounds nuw %struct.token, ptr %13, i32 0, i32 0
  %15 = load ptr, ptr %14, align 8, !tbaa !12
  call void @free(ptr noundef %15) #13
  %16 = load ptr, ptr %2, align 8, !tbaa !45
  %17 = getelementptr inbounds nuw %struct.token, ptr %16, i32 0, i32 0
  store ptr null, ptr %17, align 8, !tbaa !12
  br label %18

18:                                               ; preds = %12, %7
  br label %19

19:                                               ; preds = %18, %1
  ret void
}

; Function Attrs: nounwind uwtable
define internal void @scope_free_all(ptr noundef %0) #0 {
  %2 = alloca ptr, align 8
  %3 = alloca ptr, align 8
  store ptr %0, ptr %2, align 8, !tbaa !31
  call void @llvm.lifetime.start.p0(i64 8, ptr %3) #13
  br label %4

4:                                                ; preds = %11, %1
  %5 = load ptr, ptr %2, align 8, !tbaa !31
  %6 = getelementptr inbounds nuw %struct.scope, ptr %5, i32 0, i32 2
  %7 = load ptr, ptr %6, align 8, !tbaa !68
  store ptr %7, ptr %3, align 8, !tbaa !31
  %8 = load ptr, ptr %2, align 8, !tbaa !31
  %9 = call ptr @scope_done(ptr noundef %8)
  %10 = load ptr, ptr %3, align 8, !tbaa !31
  store ptr %10, ptr %2, align 8, !tbaa !31
  br label %11

11:                                               ; preds = %4
  %12 = load ptr, ptr %2, align 8, !tbaa !31
  %13 = icmp ne ptr %12, null
  br i1 %13, label %4, label %14

14:                                               ; preds = %11
  call void @llvm.lifetime.end.p0(i64 8, ptr %3) #13
  ret void
}

; Function Attrs: nounwind uwtable
define void @cli_js_destroy(ptr noundef %0) #0 {
  %2 = alloca ptr, align 8
  %3 = alloca i64, align 8
  %4 = alloca i32, align 4
  store ptr %0, ptr %2, align 8, !tbaa !3
  call void @llvm.lifetime.start.p0(i64 8, ptr %3) #13
  %5 = load ptr, ptr %2, align 8, !tbaa !3
  %6 = icmp ne ptr %5, null
  br i1 %6, label %8, label %7

7:                                                ; preds = %1
  store i32 1, ptr %4, align 4
  br label %46

8:                                                ; preds = %1
  %9 = load ptr, ptr %2, align 8, !tbaa !3
  %10 = getelementptr inbounds nuw %struct.parser_state, ptr %9, i32 0, i32 4
  %11 = load ptr, ptr %10, align 8, !tbaa !67
  call void @scope_free_all(ptr noundef %11)
  store i64 0, ptr %3, align 8, !tbaa !10
  br label %12

12:                                               ; preds = %26, %8
  %13 = load i64, ptr %3, align 8, !tbaa !10
  %14 = load ptr, ptr %2, align 8, !tbaa !3
  %15 = getelementptr inbounds nuw %struct.parser_state, ptr %14, i32 0, i32 6
  %16 = getelementptr inbounds nuw %struct.tokens, ptr %15, i32 0, i32 1
  %17 = load i64, ptr %16, align 8, !tbaa !43
  %18 = icmp ult i64 %13, %17
  br i1 %18, label %19, label %29

19:                                               ; preds = %12
  %20 = load ptr, ptr %2, align 8, !tbaa !3
  %21 = getelementptr inbounds nuw %struct.parser_state, ptr %20, i32 0, i32 6
  %22 = getelementptr inbounds nuw %struct.tokens, ptr %21, i32 0, i32 0
  %23 = load ptr, ptr %22, align 8, !tbaa !44
  %24 = load i64, ptr %3, align 8, !tbaa !10
  %25 = getelementptr inbounds nuw %struct.token, ptr %23, i64 %24
  call void @free_token(ptr noundef %25)
  br label %26

26:                                               ; preds = %19
  %27 = load i64, ptr %3, align 8, !tbaa !10
  %28 = add i64 %27, 1
  store i64 %28, ptr %3, align 8, !tbaa !10
  br label %12

29:                                               ; preds = %12
  %30 = load ptr, ptr %2, align 8, !tbaa !3
  %31 = getelementptr inbounds nuw %struct.parser_state, ptr %30, i32 0, i32 6
  %32 = getelementptr inbounds nuw %struct.tokens, ptr %31, i32 0, i32 0
  %33 = load ptr, ptr %32, align 8, !tbaa !44
  call void @free(ptr noundef %33) #13
  %34 = load ptr, ptr %2, align 8, !tbaa !3
  %35 = getelementptr inbounds nuw %struct.parser_state, ptr %34, i32 0, i32 5
  %36 = load ptr, ptr %35, align 8, !tbaa !13
  %37 = icmp ne ptr %36, null
  br i1 %37, label %38, label %43

38:                                               ; preds = %29
  %39 = load ptr, ptr %2, align 8, !tbaa !3
  %40 = getelementptr inbounds nuw %struct.parser_state, ptr %39, i32 0, i32 5
  %41 = load ptr, ptr %40, align 8, !tbaa !13
  %42 = call i32 @yylex_destroy(ptr noundef %41)
  br label %43

43:                                               ; preds = %38, %29
  %44 = load ptr, ptr %2, align 8, !tbaa !3
  call void @llvm.memset.p0.i64(ptr align 8 %44, i8 85, i64 80, i1 false)
  %45 = load ptr, ptr %2, align 8, !tbaa !3
  call void @free(ptr noundef %45) #13
  call void (ptr, ...) @cli_dbgmsg(ptr noundef @.str.8)
  store i32 0, ptr %4, align 4
  br label %46

46:                                               ; preds = %43, %7
  call void @llvm.lifetime.end.p0(i64 8, ptr %3) #13
  %47 = load i32, ptr %4, align 4
  switch i32 %47, label %49 [
    i32 0, label %48
    i32 1, label %48
  ]

48:                                               ; preds = %46, %46
  ret void

49:                                               ; preds = %46
  unreachable
}