; Function Attrs: nounwind uwtable
define void @cli_js_destroy(ptr noundef %0) local_unnamed_addr #0 {
  %.not = icmp eq ptr %0, null
  br i1 %.not, label %30, label %2

2:                                                ; preds = %1
  %3 = getelementptr inbounds nuw i8, ptr %0, i64 32
  %4 = load ptr, ptr %3, align 8, !tbaa !68
  br label %5

5:                                                ; preds = %5, %2
  %.0.i = phi ptr [ %4, %2 ], [ %7, %5 ]
  %6 = getelementptr inbounds nuw i8, ptr %.0.i, i64 40
  %7 = load ptr, ptr %6, align 8, !tbaa !69
  tail call void @cli_hashtab_clear(ptr noundef %.0.i) #20
  %8 = load ptr, ptr %.0.i, align 8, !tbaa !80
  tail call void @free(ptr noundef %8) #20
  tail call void @free(ptr noundef %.0.i) #20
  %.not.i = icmp eq ptr %7, null
  br i1 %.not.i, label %scope_free_all.exit.preheader, label %5

scope_free_all.exit.preheader:                    ; preds = %5
  %9 = getelementptr inbounds nuw i8, ptr %0, i64 48
  %10 = getelementptr inbounds nuw i8, ptr %0, i64 56
  %11 = load i64, ptr %10, align 8, !tbaa !23
  %.not16 = icmp eq i64 %11, 0
  br i1 %.not16, label %scope_free_all.exit._crit_edge, label %.lr.ph

.lr.ph:                                           ; preds = %scope_free_all.exit.preheader, %free_token.exit
  %12 = phi i64 [ %21, %free_token.exit ], [ %11, %scope_free_all.exit.preheader ]
  %.015 = phi i64 [ %22, %free_token.exit ], [ 0, %scope_free_all.exit.preheader ]
  %13 = load ptr, ptr %9, align 8, !tbaa !25
  %14 = getelementptr inbounds nuw %struct.token, ptr %13, i64 %.015
  %15 = getelementptr inbounds nuw i8, ptr %14, i64 12
  %16 = load i32, ptr %15, align 4, !tbaa !27
  %17 = icmp eq i32 %16, 2
  br i1 %17, label %18, label %free_token.exit

18:                                               ; preds = %.lr.ph
  %19 = load ptr, ptr %14, align 8, !tbaa !3
  %.not.i14 = icmp eq ptr %19, null
  br i1 %.not.i14, label %free_token.exit, label %20

20:                                               ; preds = %18
  tail call void @free(ptr noundef nonnull %19) #20
  store ptr null, ptr %14, align 8, !tbaa !3
  %.pre = load i64, ptr %10, align 8, !tbaa !23
  br label %free_token.exit

free_token.exit:                                  ; preds = %.lr.ph, %18, %20
  %21 = phi i64 [ %12, %.lr.ph ], [ %12, %18 ], [ %.pre, %20 ]
  %22 = add nuw i64 %.015, 1
  %23 = icmp ult i64 %22, %21
  br i1 %23, label %.lr.ph, label %scope_free_all.exit._crit_edge

scope_free_all.exit._crit_edge:                   ; preds = %free_token.exit, %scope_free_all.exit.preheader
  %24 = load ptr, ptr %9, align 8, !tbaa !25
  tail call void @free(ptr noundef %24) #20
  %25 = getelementptr inbounds nuw i8, ptr %0, i64 40
  %26 = load ptr, ptr %25, align 8, !tbaa !6
  %.not13 = icmp eq ptr %26, null
  br i1 %.not13, label %29, label %27

27:                                               ; preds = %scope_free_all.exit._crit_edge
  %28 = load ptr, ptr %26, align 8, !tbaa !43
  tail call void @free(ptr noundef %28) #20
  tail call void @free(ptr noundef nonnull %26) #20
  br label %29

29:                                               ; preds = %27, %scope_free_all.exit._crit_edge
  tail call void @free(ptr noundef nonnull %0) #20
  tail call void (ptr, ...) @cli_dbgmsg(ptr noundef nonnull @.str.8) #20
  br label %30

30:                                               ; preds = %1, %29
  ret void
}